; Function Attrs: nounwind sspstrong uwtable
define internal fastcc noundef ptr @rb_node_iter_new(ptr noundef captures(none) %0, ptr noundef %1, ptr noundef %2, ptr noundef nonnull readonly captures(none) %3) unnamed_addr #0 {
  %5 = tail call fastcc ptr @rb_node_scope_new(ptr noundef %0, ptr noundef %1, ptr noundef %2, ptr noundef %3)
  %6 = getelementptr i8, ptr %0, i64 288
  %.val.i = load ptr, ptr %6, align 8, !tbaa !130
  %7 = tail call ptr @rb_ast_newnode(ptr noundef %.val.i, i32 noundef range(i32 0, 115) 11, i64 noundef range(i64 32, 129) 48, i64 noundef 8) #35
  tail call void @rb_node_init(ptr noundef %7, i32 noundef range(i32 0, 115) 11) #35
  %8 = getelementptr inbounds nuw i8, ptr %7, i64 8
  tail call void @llvm.memcpy.p0.p0.i64(ptr noundef nonnull align 8 dereferenceable(16) %8, ptr noundef nonnull readonly align 4 dereferenceable(16) %3, i64 16, i1 false), !tbaa.struct !59
  %9 = load i32, ptr %3, align 4, !tbaa !53
  %10 = sext i32 %9 to i64
  %11 = load i64, ptr %7, align 8, !tbaa !72
  %12 = and i64 %11, 32767
  %13 = shl nsw i64 %10, 15
  %14 = or disjoint i64 %12, %13
  store i64 %14, ptr %7, align 8, !tbaa !72
  %15 = getelementptr inbounds nuw i8, ptr %0, i64 296
  %16 = load i32, ptr %15, align 8, !tbaa !207
  %17 = add i32 %16, 1
  store i32 %17, ptr %15, align 8, !tbaa !207
  %18 = getelementptr inbounds nuw i8, ptr %7, i64 24
  store i32 %16, ptr %18, align 8, !tbaa !208
  %19 = getelementptr inbounds nuw i8, ptr %7, i64 32
  store ptr %5, ptr %19, align 8, !tbaa !111
  %20 = getelementptr inbounds nuw i8, ptr %7, i64 40
  store ptr null, ptr %20, align 8, !tbaa !115
  ret ptr %7
}